((dp0
(S'm62'
p1
S'm66'
p2
tp3
(g1
g2
NNtp4
s(S'm101'
p5
S'm102'
p6
tp7
(g5
g6
(g6
S'm103'
p8
tp9
(g6
S'm104'
p10
tp11
tp12
s(S'm2'
p13
S'm3'
p14
tp15
(g13
g14
(g14
S'm4'
p16
tp17
(g14
S'm5'
p18
tp19
tp20
s(S'm94'
p21
S'm112'
p22
tp23
(g21
g22
(g22
S'm113'
p24
tp25
(g22
S'm122'
p26
tp27
tp28
s(S'm96'
p29
S'm98'
p30
tp31
(g29
g30
NNtp32
s(S'm86'
p33
S'm87'
p34
tp35
(g33
g34
(g34
S'm88'
p36
tp37
(g34
S'm93'
p38
tp39
tp40
s(S'm185'
p41
S'm187'
p42
tp43
(g41
g42
NNtp44
s(S'm51'
p45
S'm57'
p46
tp47
(g45
g46
(g46
S'm58'
p48
tp49
(g46
S'm67'
p50
tp51
tp52
s(S'm99'
p53
g5
tp54
(g53
g5
(g5
g6
tp55
(g5
S'm105'
p56
tp57
tp58
s(S'm109'
p59
S'm111'
p60
tp61
(g59
g60
NNtp62
s(g29
S'm97'
p63
tp64
(g29
g63
NNtp65
s(S'm75'
p66
S'm76'
p67
tp68
(g66
g67
(g67
S'm77'
p69
tp70
(g67
g33
tp71
tp72
s(S'm63'
p73
S'm65'
p74
tp75
(g73
g74
NNtp76
s(S'm140'
p77
S'm142'
p78
tp79
(g77
g78
(g78
S'm143'
p80
tp81
(g78
S'm144'
p82
tp83
tp84
s(S'm6'
p85
S'm7'
p86
tp87
(g85
g86
NNtp88
s(S'm184'
p89
S'm188'
p90
tp91
(g89
g90
NNtp92
s(g26
S'm123'
p93
tp94
(g26
g93
NNtp95
s(S'm116'
p96
S'm118'
p97
tp98
(g96
g97
NNtp99
s(S'm139'
p100
S'm145'
p101
tp102
(g100
g101
NNtp103
s(S'm138'
p104
S'm146'
p105
tp106
(g104
g105
(g105
S'm147'
p107
tp108
(g105
S'm148'
p109
tp110
tp111
s(S'm151'
p112
S'm152'
p113
tp114
(g112
g113
NNtp115
s(S'm182'
p116
S'm190'
p117
tp118
(g116
g117
(g117
S'm191'
p119
tp120
(g117
S'm194'
p121
tp122
tp123
s(g14
g18
tp124
(g14
g18
(g18
g85
tp125
(g18
S'm11'
p126
tp127
tp128
s(g116
S'm183'
p129
tp130
(g116
g129
(g129
g89
tp131
(g129
S'm189'
p132
tp133
tp134
s(g126
S'm17'
p135
tp136
(g126
g135
NNtp137
s(S'm165'
p138
S'm167'
p139
tp140
(g138
g139
NNtp141
sS'hTop'
p142
(S'Top'
p143
S'm0'
p144
(g144
S'm1'
p145
tp146
(g144
S'm46'
p147
tp148
tp149
s(S'm37'
p150
S'm39'
p151
tp152
(g150
g151
(g151
S'm40'
p153
tp154
(g151
S'm41'
p155
tp156
tp157
s(S'm128'
p158
S'm129'
p159
tp160
(g158
g159
NNtp161
s(g147
S'm74'
p162
tp163
(g147
g162
(g162
g66
tp164
(g162
S'm172'
p165
tp166
tp167
s(g162
g165
tp168
(g162
g165
(g165
S'm173'
p169
tp170
(g165
g116
tp171
tp172
s(g6
g8
tp173
(g6
g8
NNtp174
s(g45
S'm52'
p175
tp176
(g45
g175
(g175
S'm53'
p177
tp178
(g175
S'm54'
p179
tp180
tp181
s(g165
g116
tp182
(g165
g116
(g116
g129
tp183
(g116
g117
tp184
tp185
s(g151
g155
tp186
(g151
g155
(g155
S'm42'
p187
tp188
(g155
S'm45'
p189
tp190
tp191
s(S'm174'
p192
S'm178'
p193
tp194
(g192
g193
NNtp195
s(g26
S'm124'
p196
tp197
(g26
g196
(g196
S'm125'
p198
tp199
(g196
g158
tp200
tp201
s(S'm31'
p202
S'm32'
p203
tp204
(g202
g203
NNtp205
s(S'm149'
p206
S'm150'
p207
tp208
(g206
g207
(g207
g112
tp209
(g207
S'm154'
p210
tp211
tp212
s(S'm155'
p213
S'm161'
p214
tp215
(g213
g214
(g214
S'm162'
p216
tp217
(g214
S'm163'
p218
tp219
tp220
s(g126
S'm12'
p221
tp222
(g126
g221
(g221
S'm13'
p223
tp224
(g221
S'm14'
p225
tp226
tp227
s(g34
g36
tp228
(g34
g36
(g36
S'm89'
p229
tp230
(g36
S'm90'
p231
tp232
tp233
s(g196
g198
tp234
(g196
g198
(g198
S'm126'
p235
tp236
(g198
S'm127'
p237
tp238
tp239
s(g34
g38
tp240
(g34
g38
NNtp241
s(g22
g24
tp242
(g22
g24
(g24
S'm114'
p243
tp244
(g24
S'm115'
p245
tp246
tp247
s(S'm28'
p248
S'm30'
p249
tp250
(g248
g249
NNtp251
s(S'm164'
p252
S'm168'
p253
tp254
(g252
g253
NNtp255
s(g66
g206
tp256
(g66
g206
(g206
g207
tp257
(g206
g213
tp258
tp259
s(S'm195'
p260
S'm197'
p261
tp262
(g260
g261
NNtp263
s(S'm80'
p264
S'm82'
p265
tp266
(g264
g265
NNtp267
s(g169
g192
tp268
(g169
g192
(g192
S'm175'
p269
tp270
(g192
g193
tp271
tp272
s(g206
g213
tp273
(g206
g213
(g213
S'm156'
p274
tp275
(g213
g214
tp276
tp277
s(g1
g73
tp278
(g1
g73
(g73
S'm64'
p279
tp280
(g73
g74
tp281
tp282
s(g21
S'm95'
p283
tp284
(g21
g283
(g283
g29
tp285
(g283
g53
tp286
tp287
s(g112
S'm153'
p288
tp289
(g112
g288
NNtp290
s(S'm20'
p291
S'm24'
p292
tp293
(g291
g292
NNtp294
s(g67
g69
tp295
(g67
g69
(g69
S'm78'
p296
tp297
(g69
S'm83'
p298
tp299
tp300
s(g129
g132
tp301
(g129
g132
NNtp302
s(g207
g112
tp303
(g207
g112
(g112
g113
tp304
(g112
g288
tp305
tp306
s(g105
g109
tp307
(g105
g109
NNtp308
s(g56
g59
tp309
(g56
g59
(g59
S'm110'
p310
tp311
(g59
g60
tp312
tp313
s(S'm48'
p314
S'm50'
p315
tp316
(g314
g315
NNtp317
s(g69
g296
tp318
(g69
g296
(g296
S'm79'
p319
tp320
(g296
g264
tp321
tp322
s(S'm35'
p323
g150
tp324
(g323
g150
(g150
S'm38'
p325
tp326
(g150
g151
tp327
tp328
s(g144
g145
tp329
(g144
g145
(g145
g13
tp330
(g145
S'm25'
p331
tp332
tp333
s(g6
g10
tp334
(g6
g10
NNtp335
s(g291
S'm21'
p336
tp337
(g291
g336
(g336
S'm22'
p338
tp339
(g336
S'm23'
p340
tp341
tp342
s(S'm18'
p343
g291
tp344
(g343
g291
(g291
g336
tp345
(g291
g292
tp346
tp347
s(S'm71'
p348
S'm73'
p349
tp350
(g348
g349
NNtp351
s(g331
S'm27'
p352
tp353
(g331
g352
(g352
g248
tp354
(g352
g202
tp355
tp356
s(g36
g231
tp357
(g36
g231
(g231
S'm91'
p358
tp359
(g231
S'm92'
p360
tp361
tp362
s(g214
g218
tp363
(g214
g218
(g218
g252
tp364
(g218
S'm169'
p365
tp366
tp367
s(g73
g279
tp368
(g73
g279
NNtp369
s(g48
S'm60'
p370
tp371
(g48
g370
(g370
S'm61'
p372
tp373
(g370
g1
tp374
tp375
s(g298
S'm85'
p376
tp377
(g298
g376
NNtp378
s(g14
g16
tp379
(g14
g16
NNtp380
s(g336
g340
tp381
(g336
g340
NNtp382
s(g296
g319
tp383
(g296
g319
NNtp384
s(g192
g269
tp385
(g192
g269
(g269
S'm176'
p386
tp387
(g269
S'm177'
p388
tp389
tp390
s(g119
S'm192'
p391
tp392
(g119
g391
NNtp393
s(g150
g325
tp394
(g150
g325
NNtp395
s(S'm133'
p396
S'm135'
p397
tp398
(g396
g397
NNtp399
s(g269
g388
tp400
(g269
g388
NNtp401
s(g175
g177
tp402
(g175
g177
NNtp403
s(g53
S'm100'
p404
tp405
(g53
g404
NNtp406
s(g145
g331
tp407
(g145
g331
(g331
S'm26'
p408
tp409
(g331
g352
tp410
tp411
s(g296
g264
tp412
(g296
g264
(g264
S'm81'
p413
tp414
(g264
g265
tp415
tp416
s(g155
g189
tp417
(g155
g189
NNtp418
s(g24
g245
tp419
(g24
g245
(g245
g96
tp420
(g245
S'm119'
p421
tp422
tp423
s(g245
g421
tp424
(g245
g421
(g421
S'm120'
p425
tp426
(g421
S'm121'
p427
tp428
tp429
s(g198
g237
tp430
(g198
g237
NNtp431
s(g352
g202
tp432
(g352
g202
(g202
g203
tp433
(g202
S'm33'
p434
tp435
tp436
s(g96
S'm117'
p437
tp438
(g96
g437
NNtp439
s(g248
S'm29'
p440
tp441
(g248
g440
NNtp442
s(g231
g358
tp443
(g231
g358
NNtp444
s(S'm69'
p445
S'm70'
p446
tp447
(g445
g446
NNtp448
s(g269
g386
tp449
(g269
g386
NNtp450
s(g69
g298
tp451
(g69
g298
(g298
S'm84'
p452
tp453
(g298
g376
tp454
tp455
s(g314
S'm49'
p456
tp457
(g314
g456
NNtp458
s(g5
g56
tp459
(g5
g56
(g56
S'm106'
p460
tp461
(g56
g59
tp462
tp463
s(g18
g85
tp464
(g18
g85
(g85
g86
tp465
(g85
S'm8'
p466
tp467
tp468
s(g50
g445
tp469
(g50
g445
(g445
g446
tp470
(g445
g348
tp471
tp472
s(g370
g372
tp473
(g370
g372
NNtp474
s(g225
S'm15'
p475
tp476
(g225
g475
NNtp477
s(g207
g210
tp478
(g207
g210
NNtp479
s(S'm130'
p480
S'm131'
p481
tp482
(g480
g481
NNtp483
s(g274
S'm160'
p484
tp485
(g274
g484
NNtp486
s(g22
g26
tp487
(g22
g26
(g26
g93
tp488
(g26
g196
tp489
tp490
s(g231
g360
tp491
(g231
g360
NNtp492
s(g121
S'm198'
p493
tp494
(g121
g493
NNtp495
s(g434
g323
tp496
(g434
g323
(g323
S'm36'
p497
tp498
(g323
g150
tp499
tp500
s(g252
g138
tp501
(g252
g138
(g138
S'm166'
p502
tp503
(g138
g139
tp504
tp505
s(g323
g497
tp506
(g323
g497
NNtp507
s(g221
g225
tp508
(g221
g225
(g225
g475
tp509
(g225
S'm16'
p510
tp511
tp512
s(g460
S'm108'
p513
tp514
(g460
g513
NNtp515
s(g274
S'm157'
p516
tp517
(g274
g516
(g516
S'm158'
p518
tp519
(g516
S'm159'
p520
tp521
tp522
s(g352
g248
tp523
(g352
g248
(g248
g440
tp524
(g248
g249
tp525
tp526
s(g516
g520
tp527
(g516
g520
NNtp528
s(g460
S'm107'
p529
tp530
(g460
g529
NNtp531
s(g245
g96
tp532
(g245
g96
(g96
g437
tp533
(g96
g97
tp534
tp535
s(g225
g510
tp536
(g225
g510
NNtp537
s(g516
g518
tp538
(g516
g518
NNtp539
s(g348
S'm72'
p540
tp541
(g348
g540
NNtp542
s(g196
g158
tp543
(g196
g158
(g158
g159
tp544
(g158
g480
tp545
tp546
s(g331
g408
tp547
(g331
g408
NNtp548
s(g480
S'm132'
p549
tp550
(g480
g549
(g549
g396
tp551
(g549
S'm136'
p552
tp553
tp554
s(g89
g41
tp555
(g89
g41
(g41
S'm186'
p556
tp557
(g41
g42
tp558
tp559
s(g117
g121
tp560
(g117
g121
(g121
g260
tp561
(g121
g493
tp562
tp563
s(g104
g100
tp564
(g104
g100
(g100
g77
tp565
(g100
g101
tp566
tp567
s(g365
S'm170'
p568
tp569
(g365
g568
NNtp570
s(g298
g452
tp571
(g298
g452
NNtp572
s(g13
g343
tp573
(g13
g343
(g343
S'm19'
p574
tp575
(g343
g291
tp576
tp577
s(g46
g50
tp578
(g46
g50
(g50
S'm68'
p579
tp580
(g50
g445
tp581
tp582
s(g466
S'm10'
p583
tp584
(g466
g583
NNtp585
s(g145
g13
tp586
(g145
g13
(g13
g14
tp587
(g13
g343
tp588
tp589
s(g129
g89
tp590
(g129
g89
(g89
g41
tp591
(g89
g90
tp592
tp593
s(g283
g53
tp594
(g283
g53
(g53
g404
tp595
(g53
g5
tp596
tp597
s(g336
g338
tp598
(g336
g338
NNtp599
s(g343
g574
tp600
(g343
g574
NNtp601
s(g421
g425
tp602
(g421
g425
NNtp603
s(g138
g502
tp604
(g138
g502
NNtp605
s(g396
S'm134'
p606
tp607
(g396
g606
NNtp608
s(g165
g169
tp609
(g165
g169
(g169
g192
tp610
(g169
S'm179'
p611
tp612
tp613
s(g162
g66
tp614
(g162
g66
(g66
g67
tp615
(g66
g206
tp616
tp617
s(g67
g33
tp618
(g67
g33
(g33
g34
tp619
(g33
g21
tp620
tp621
s(g59
g310
tp622
(g59
g310
NNtp623
s(g117
g119
tp624
(g117
g119
(g119
g391
tp625
(g119
S'm193'
p626
tp627
tp628
s(g77
S'm141'
p629
tp630
(g77
g629
NNtp631
s(g175
g179
tp632
(g175
g179
(g179
S'm55'
p633
tp634
(g179
S'm56'
p635
tp636
tp637
s(g158
g480
tp638
(g158
g480
(g480
g481
tp639
(g480
g549
tp640
tp641
s(g466
S'm9'
p642
tp643
(g466
g642
NNtp644
s(g552
g104
tp645
(g552
g104
(g104
g100
tp646
(g104
g105
tp647
tp648
s(g187
S'm43'
p649
tp650
(g187
g649
NNtp651
s(g549
g552
tp652
(g549
g552
(g552
S'm137'
p653
tp654
(g552
g104
tp655
tp656
s(g33
g21
tp657
(g33
g21
(g21
g283
tp658
(g21
g22
tp659
tp660
s(g179
g633
tp661
(g179
g633
NNtp662
s(g611
S'm181'
p663
tp664
(g611
g663
NNtp665
s(g24
g243
tp666
(g24
g243
NNtp667
s(g198
g235
tp668
(g198
g235
NNtp669
s(g18
g126
tp670
(g18
g126
(g126
g221
tp671
(g126
g135
tp672
tp673
s(g36
g229
tp674
(g36
g229
NNtp675
s(g119
g626
tp676
(g119
g626
NNtp677
s(g85
g466
tp678
(g85
g466
(g466
g642
tp679
(g466
g583
tp680
tp681
s(g445
g348
tp682
(g445
g348
(g348
g540
tp683
(g348
g349
tp684
tp685
s(g105
g107
tp686
(g105
g107
NNtp687
s(g151
g153
tp688
(g151
g153
NNtp689
s(g421
g427
tp690
(g421
g427
NNtp691
s(g202
g434
tp692
(g202
g434
(g434
S'm34'
p693
tp694
(g434
g323
tp695
tp696
s(g218
g365
tp697
(g218
g365
(g365
g568
tp698
(g365
S'm171'
p699
tp700
tp701
s(g78
g82
tp702
(g78
g82
NNtp703
s(g50
g579
tp704
(g50
g579
NNtp705
s(g370
g1
tp706
(g370
g1
(g1
g73
tp707
(g1
g2
tp708
tp709
s(g78
g80
tp710
(g78
g80
NNtp711
s(g41
g556
tp712
(g41
g556
NNtp713
s(g549
g396
tp714
(g549
g396
(g396
g606
tp715
(g396
g397
tp716
tp717
s(g179
g635
tp718
(g179
g635
NNtp719
s(S'm47'
p720
g314
tp721
(g720
g314
(g314
g456
tp722
(g314
g315
tp723
tp724
s(g169
g611
tp725
(g169
g611
(g611
S'm180'
p726
tp727
(g611
g663
tp728
tp729
s(g187
S'm44'
p730
tp731
(g187
g730
NNtp732
s(g720
g45
tp733
(g720
g45
(g45
g175
tp734
(g45
g46
tp735
tp736
s(g221
g223
tp737
(g221
g223
NNtp738
s(g214
g216
tp739
(g214
g216
NNtp740
s(g264
g413
tp741
(g264
g413
NNtp742
s(g434
g693
tp743
(g434
g693
NNtp744
s(g552
g653
tp745
(g552
g653
NNtp746
s(g218
g252
tp747
(g218
g252
(g252
g138
tp748
(g252
g253
tp749
tp750
s(g121
g260
tp751
(g121
g260
(g260
S'm196'
p752
tp753
(g260
g261
tp754
tp755
s(g283
g29
tp756
(g283
g29
(g29
g63
tp757
(g29
g30
tp758
tp759
s(g155
g187
tp760
(g155
g187
(g187
g649
tp761
(g187
g730
tp762
tp763
s(g260
g752
tp764
(g260
g752
NNtp765
s(g56
g460
tp766
(g56
g460
(g460
g529
tp767
(g460
g513
tp768
tp769
s(g147
g720
tp770
(g147
g720
(g720
g314
tp771
(g720
g45
tp772
tp773
s(g46
g48
tp774
(g46
g48
(g48
S'm59'
p775
tp776
(g48
g370
tp777
tp778
s(g48
g775
tp779
(g48
g775
NNtp780
s(g365
g699
tp781
(g365
g699
NNtp782
s(g144
g147
tp783
(g144
g147
(g147
g720
tp784
(g147
g162
tp785
tp786
s(g611
g726
tp787
(g611
g726
NNtp788
s(g213
g274
tp789
(g213
g274
(g274
g516
tp790
(g274
g484
tp791
tp792
s(g100
g77
tp793
(g100
g77
(g77
g629
tp794
(g77
g78
tp795
tp796
s(dp797
(S'n142'
p798
S'n146'
p799
tp800
(g798
g799
NNtp801
s(S'n90'
p802
S'n91'
p803
tp804
(g802
g803
(g803
S'n92'
p805
tp806
(g803
S'n95'
p807
tp808
tp809
s(S'n117'
p810
S'n131'
p811
tp812
(g810
g811
(g811
S'n132'
p813
tp814
(g811
S'n141'
p815
tp816
tp817
s(S'n155'
p818
S'n159'
p819
tp820
(g818
g819
NNtp821
s(S'n11'
p822
S'n12'
p823
tp824
(g822
g823
(g823
S'n13'
p825
tp826
(g823
S'n18'
p827
tp828
tp829
s(S'n67'
p830
S'n69'
p831
tp832
(g830
g831
NNtp833
s(S'n120'
p834
S'n121'
p835
tp836
(g834
g835
(g835
S'n122'
p837
tp838
(g835
S'n127'
p839
tp840
tp841
s(S'n80'
p842
S'n81'
p843
tp844
(g842
g843
(g843
S'n82'
p845
tp846
(g843
S'n85'
p847
tp848
tp849
s(g805
S'n93'
p850
tp851
(g805
g850
NNtp852
s(S'n88'
p853
S'n106'
p854
tp855
(g853
g854
(g854
S'n107'
p856
tp857
(g854
S'n116'
p858
tp859
tp860
s(S'n24'
p861
S'n44'
p862
tp863
(g861
g862
(g862
S'n45'
p864
tp865
(g862
S'n52'
p866
tp867
tp868
s(g825
S'n14'
p869
tp870
(g825
g869
(g869
S'n15'
p871
tp872
(g869
S'n16'
p873
tp874
tp875
s(S'n156'
p876
S'n158'
p877
tp878
(g876
g877
NNtp879
s(S'n119'
p880
S'n129'
p881
tp882
(g880
g881
NNtp883
s(S'n123'
p884
S'n124'
p885
tp886
(g884
g885
NNtp887
s(S'n161'
p888
S'n162'
p889
tp890
(g888
g889
NNtp891
s(S'n21'
p892
S'n22'
p893
tp894
(g892
g893
(g893
S'n23'
p895
tp896
(g893
S'n54'
p897
tp898
tp899
s(S'n166'
p900
S'n168'
p901
tp902
(g900
g901
NNtp903
s(g897
S'n56'
p904
tp905
(g897
g904
NNtp906
s(g862
g864
tp907
(g862
g864
(g864
S'n46'
p908
tp909
(g864
S'n51'
p910
tp911
tp912
s(g869
g871
tp913
(g869
g871
NNtp914
s(g837
S'n126'
p915
tp916
(g837
g915
NNtp917
s(S'n110'
p918
S'n111'
p919
tp920
(g918
g919
NNtp921
s(S'n60'
p922
S'n61'
p923
tp924
(g922
g923
(g923
S'n62'
p925
tp926
(g923
g830
tp927
tp928
s(S'n20'
p929
S'n78'
p930
tp931
(g929
g930
(g930
S'n79'
p932
tp933
(g930
g853
tp934
tp935
s(g802
S'n96'
p936
tp937
(g802
g936
NNtp938
s(S'n0'
p939
S'n1'
p940
tp941
(g939
g940
NNtp942
s(g930
g853
tp943
(g930
g853
(g853
S'n89'
p944
tp945
(g853
g854
tp946
tp947
s(S'n35'
p948
S'n39'
p949
tp950
(g948
g949
NNtp951
s(g810
S'n118'
p952
tp953
(g810
g952
(g952
g880
tp954
(g952
S'n130'
p955
tp956
tp957
s(g948
S'n36'
p958
tp959
(g948
g958
(g958
S'n37'
p960
tp961
(g958
S'n38'
p962
tp963
tp964
s(g854
g858
tp965
(g854
g858
(g858
g810
tp966
(g858
S'n148'
p967
tp968
tp969
s(g864
g908
tp970
(g864
g908
(g908
S'n47'
p971
tp972
(g908
S'n50'
p973
tp974
tp975
s(g958
g962
tp976
(g958
g962
NNtp977
s(S'n103'
p978
S'n104'
p979
tp980
(g978
g979
NNtp981
s(g835
g839
tp982
(g835
g839
NNtp983
s(g854
g856
tp984
(g854
g856
(g856
S'n108'
p985
tp986
(g856
S'n115'
p987
tp988
tp989
s(S'n8'
p990
S'n9'
p991
tp992
(g990
g991
NNtp993
s(S'n149'
p994
S'n151'
p995
tp996
(g994
g995
NNtp997
s(g845
S'n83'
p998
tp999
(g845
g998
NNtp1000
s(g985
S'n114'
p1001
tp1002
(g985
g1001
NNtp1003
s(g813
S'n140'
p1004
tp1005
(g813
g1004
NNtp1006
s(S'n98'
p1007
S'n99'
p1008
tp1009
(g1007
g1008
(g1008
S'n100'
p1010
tp1011
(g1008
S'n101'
p1012
tp1013
tp1014
s(g900
S'n167'
p1015
tp1016
(g900
g1015
NNtp1017
s(S'n134'
p1018
S'n135'
p1019
tp1020
(g1018
g1019
NNtp1021
s(g971
S'n49'
p1022
tp1023
(g971
g1022
NNtp1024
s(g835
g837
tp1025
(g835
g837
(g837
g884
tp1026
(g837
g915
tp1027
tp1028
s(g952
g880
tp1029
(g952
g880
(g880
g834
tp1030
(g880
g881
tp1031
tp1032
s(S'n133'
p1033
S'n137'
p1034
tp1035
(g1033
g1034
(g1034
S'n138'
p1036
tp1037
(g1034
S'n139'
p1038
tp1039
tp1040
s(S'n29'
p1041
S'n30'
p1042
tp1043
(g1041
g1042
(g1042
S'n31'
p1044
tp1045
(g1042
S'n32'
p1046
tp1047
tp1048
s(g853
g944
tp1049
(g853
g944
(g944
g802
tp1050
(g944
S'n97'
p1051
tp1052
tp1053
s(S'n154'
p1054
S'n160'
p1055
tp1056
(g1054
g1055
(g1055
g888
tp1057
(g1055
S'n164'
p1058
tp1059
tp1060
s(S'n3'
p1061
S'n7'
p1062
tp1063
(g1061
g1062
NNtp1064
s(g1055
g888
tp1065
(g1055
g888
(g888
g889
tp1066
(g888
S'n163'
p1067
tp1068
tp1069
s(g895
g861
tp1070
(g895
g861
(g861
S'n25'
p1071
tp1072
(g861
g862
tp1073
tp1074
s(g893
g897
tp1075
(g893
g897
(g897
S'n55'
p1076
tp1077
(g897
g904
tp1078
tp1079
s(g1018
S'n136'
p1080
tp1081
(g1018
g1080
NNtp1082
s(S'n28'
p1083
g1041
tp1084
(g1083
g1041
(g1041
g1042
tp1085
(g1041
S'n33'
p1086
tp1087
tp1088
s(g830
S'n68'
p1089
tp1090
(g830
g1089
NNtp1091
s(g930
g932
tp1092
(g930
g932
(g932
g842
tp1093
(g932
S'n87'
p1094
tp1095
tp1096
s(S'n41'
p1097
S'n43'
p1098
tp1099
(g1097
g1098
NNtp1100
s(g825
S'n17'
p1101
tp1102
(g825
g1101
NNtp1103
s(g994
S'n150'
p1104
tp1105
(g994
g1104
NNtp1106
s(g888
g1067
tp1107
(g888
g1067
NNtp1108
s(g869
g873
tp1109
(g869
g873
NNtp1110
s(g1034
g1036
tp1111
(g1034
g1036
NNtp1112
s(g918
S'n112'
p1113
tp1114
(g918
g1113
NNtp1115
s(g1008
g1010
tp1116
(g1008
g1010
NNtp1117
s(S'n59'
p1118
g922
tp1119
(g1118
g922
(g922
g923
tp1120
(g922
S'n70'
p1121
tp1122
tp1123
s(g939
S'n2'
p1124
tp1125
(g939
g1124
(g1124
g1061
tp1126
(g1124
g990
tp1127
tp1128
s(g895
S'n53'
p1129
tp1130
(g895
g1129
NNtp1131
s(S'n63'
p1132
S'n65'
p1133
tp1134
(g1132
g1133
NNtp1135
s(g985
S'n109'
p1136
tp1137
(g985
g1136
(g1136
g918
tp1138
(g1136
S'n113'
p1139
tp1140
tp1141
s(g862
g866
tp1142
(g862
g866
NNtp1143
s(S'n4'
p1144
S'n6'
p1145
tp1146
(g1144
g1145
NNtp1147
s(g803
g805
tp1148
(g803
g805
(g805
g850
tp1149
(g805
S'n94'
p1150
tp1151
tp1152
s(g893
g895
tp1153
(g893
g895
(g895
g861
tp1154
(g895
g1129
tp1155
tp1156
s(g1034
g1038
tp1157
(g1034
g1038
NNtp1158
s(g990
S'n10'
p1159
tp1160
(g990
g1159
(g1159
g822
tp1161
(g1159
g929
tp1162
tp1163
s(S'n58'
p1164
g1118
tp1165
(g1164
g1118
(g1118
g922
tp1166
(g1118
S'n73'
p1167
tp1168
tp1169
s(g1042
g1044
tp1170
(g1042
g1044
NNtp1171
s(g1055
g1058
tp1172
(g1055
g1058
(g1058
S'n165'
p1173
tp1174
(g1058
g900
tp1175
tp1176
s(g876
S'n157'
p1177
tp1178
(g876
g1177
NNtp1179
s(g1051
g978
tp1180
(g1051
g978
(g978
g979
tp1181
(g978
S'n105'
p1182
tp1183
tp1184
s(g798
S'n143'
p1185
tp1186
(g798
g1185
(g1185
S'n144'
p1187
tp1188
(g1185
S'n145'
p1189
tp1190
tp1191
s(S'n26'
p1192
S'n27'
p1193
tp1194
(g1192
g1193
(g1193
g1083
tp1195
(g1193
g948
tp1196
tp1197
s(S'n75'
p1198
S'n77'
p1199
tp1200
(g1198
g1199
NNtp1201
s(S'n57'
p1202
g1198
tp1203
(g1202
g1198
(g1198
S'n76'
p1204
tp1205
(g1198
g1199
tp1206
tp1207
s(g845
S'n84'
p1208
tp1209
(g845
g1208
NNtp1210
s(g1121
S'n71'
p1211
tp1212
(g1121
g1211
NNtp1213
s(S'n152'
p1214
g1054
tp1215
(g1214
g1054
(g1054
g818
tp1216
(g1054
g1055
tp1217
tp1218
s(g1118
g1167
tp1219
(g1118
g1167
NNtp1220
s(g958
g960
tp1221
(g958
g960
NNtp1222
s(g823
g827
tp1223
(g823
g827
NNtp1224
s(g897
g1076
tp1225
(g897
g1076
NNtp1226
s(g908
g973
tp1227
(g908
g973
NNtp1228
s(g837
g884
tp1229
(g837
g884
(g884
g885
tp1230
(g884
S'n125'
p1231
tp1232
tp1233
s(g856
g987
tp1234
(g856
g987
NNtp1235
s(g805
g1150
tp1236
(g805
g1150
NNtp1237
s(g967
g994
tp1238
(g967
g994
(g994
g1104
tp1239
(g994
g995
tp1240
tp1241
s(g856
g985
tp1242
(g856
g985
(g985
g1136
tp1243
(g985
g1001
tp1244
tp1245
s(g932
g1094
tp1246
(g932
g1094
NNtp1247
s(g1042
g1046
tp1248
(g1042
g1046
NNtp1249
s(g884
g1231
tp1250
(g884
g1231
NNtp1251
s(g1058
g900
tp1252
(g1058
g900
(g900
g1015
tp1253
(g900
g901
tp1254
tp1255
s(g1136
g1139
tp1256
(g1136
g1139
NNtp1257
s(g1185
g1187
tp1258
(g1185
g1187
NNtp1259
s(g1192
S'n40'
p1260
tp1261
(g1192
g1260
NNtp1262
s(g815
S'n147'
p1263
tp1264
(g815
g1263
NNtp1265
s(g1185
g1189
tp1266
(g1185
g1189
NNtp1267
s(g843
g845
tp1268
(g843
g845
(g845
g998
tp1269
(g845
g1208
tp1270
tp1271
s(g1097
S'n42'
p1272
tp1273
(g1097
g1272
NNtp1274
s(g932
g842
tp1275
(g932
g842
(g842
g843
tp1276
(g842
S'n86'
p1277
tp1278
tp1279
s(g1071
g1192
tp1280
(g1071
g1192
(g1192
g1193
tp1281
(g1192
g1260
tp1282
tp1283
s(g1071
g1097
tp1284
(g1071
g1097
(g1097
g1272
tp1285
(g1097
g1098
tp1286
tp1287
s(g1159
g822
tp1288
(g1159
g822
(g822
g823
tp1289
(g822
S'n19'
p1290
tp1291
tp1292
s(g908
g971
tp1293
(g908
g971
(g971
S'n48'
p1294
tp1295
(g971
g1022
tp1296
tp1297
s(g1058
g1173
tp1298
(g1058
g1173
NNtp1299
s(g1202
g1164
tp1300
(g1202
g1164
(g1164
g1118
tp1301
(g1164
S'n74'
p1302
tp1303
tp1304
s(g815
g798
tp1305
(g815
g798
(g798
g1185
tp1306
(g798
g799
tp1307
tp1308
s(g1121
S'n72'
p1309
tp1310
(g1121
g1309
NNtp1311
s(g823
g825
tp1312
(g823
g825
(g825
g869
tp1313
(g825
g1101
tp1314
tp1315
s(g923
g830
tp1316
(g923
g830
(g830
g1089
tp1317
(g830
g831
tp1318
tp1319
s(g880
g834
tp1320
(g880
g834
(g834
g835
tp1321
(g834
S'n128'
p1322
tp1323
tp1324
s(g1008
g1012
tp1325
(g1008
g1012
NNtp1326
s(g944
g1051
tp1327
(g944
g1051
(g1051
g1007
tp1328
(g1051
g978
tp1329
tp1330
s(g1132
S'n64'
p1331
tp1332
(g1132
g1331
NNtp1333
s(g858
g967
tp1334
(g858
g967
(g967
g994
tp1335
(g967
g1214
tp1336
tp1337
s(g1007
S'n102'
p1338
tp1339
(g1007
g1338
NNtp1340
s(g929
g892
tp1341
(g929
g892
(g892
g893
tp1342
(g892
g1202
tp1343
tp1344
s(g1083
S'n34'
p1345
tp1346
(g1083
g1345
NNtp1347
s(g952
g955
tp1348
(g952
g955
NNtp1349
s(g822
g1290
tp1350
(g822
g1290
NNtp1351
s(g892
g1202
tp1352
(g892
g1202
(g1202
g1164
tp1353
(g1202
g1198
tp1354
tp1355
s(g1033
g1018
tp1356
(g1033
g1018
(g1018
g1019
tp1357
(g1018
g1080
tp1358
tp1359
s(g925
S'n66'
p1360
tp1361
(g925
g1360
NNtp1362
s(g861
g1071
tp1363
(g861
g1071
(g1071
g1192
tp1364
(g1071
g1097
tp1365
tp1366
sS'pTop'
p1367
(g143
g939
(g939
g940
tp1368
(g939
g1124
tp1369
tp1370
s(g1193
g1083
tp1371
(g1193
g1083
(g1083
g1041
tp1372
(g1083
g1345
tp1373
tp1374
s(g842
g1277
tp1375
(g842
g1277
NNtp1376
s(g1198
g1204
tp1377
(g1198
g1204
NNtp1378
s(g864
g910
tp1379
(g864
g910
NNtp1380
s(g1214
S'n153'
p1381
tp1382
(g1214
g1381
NNtp1383
s(g922
g1121
tp1384
(g922
g1121
(g1121
g1211
tp1385
(g1121
g1309
tp1386
tp1387
s(g1144
S'n5'
p1388
tp1389
(g1144
g1388
NNtp1390
s(g971
g1294
tp1391
(g971
g1294
NNtp1392
s(g978
g1182
tp1393
(g978
g1182
NNtp1394
s(g967
g1214
tp1395
(g967
g1214
(g1214
g1381
tp1396
(g1214
g1054
tp1397
tp1398
s(g925
g1132
tp1399
(g925
g1132
(g1132
g1331
tp1400
(g1132
g1133
tp1401
tp1402
s(g1051
g1007
tp1403
(g1051
g1007
(g1007
g1008
tp1404
(g1007
g1338
tp1405
tp1406
s(g1193
g948
tp1407
(g1193
g948
(g948
g958
tp1408
(g948
g949
tp1409
tp1410
s(g1136
g918
tp1411
(g1136
g918
(g918
g919
tp1412
(g918
g1113
tp1413
tp1414
s(g811
g815
tp1415
(g811
g815
(g815
g798
tp1416
(g815
g1263
tp1417
tp1418
s(g1164
g1302
tp1419
(g1164
g1302
NNtp1420
s(g1124
g1061
tp1421
(g1124
g1061
(g1061
g1144
tp1422
(g1061
g1062
tp1423
tp1424
s(g858
g810
tp1425
(g858
g810
(g810
g952
tp1426
(g810
g811
tp1427
tp1428
s(g803
g807
tp1429
(g803
g807
NNtp1430
s(g834
g1322
tp1431
(g834
g1322
NNtp1432
s(g1124
g990
tp1433
(g1124
g990
(g990
g991
tp1434
(g990
g1159
tp1435
tp1436
s(g811
g813
tp1437
(g811
g813
(g813
g1033
tp1438
(g813
g1004
tp1439
tp1440
s(g923
g925
tp1441
(g923
g925
(g925
g1132
tp1442
(g925
g1360
tp1443
tp1444
s(g843
g847
tp1445
(g843
g847
NNtp1446
s(g813
g1033
tp1447
(g813
g1033
(g1033
g1018
tp1448
(g1033
g1034
tp1449
tp1450
s(g1054
g818
tp1451
(g1054
g818
(g818
g876
tp1452
(g818
g819
tp1453
tp1454
s(g818
g876
tp1455
(g818
g876
(g876
g1177
tp1456
(g876
g877
tp1457
tp1458
s(g1159
g929
tp1459
(g1159
g929
(g929
g892
tp1460
(g929
g930
tp1461
tp1462
s(g1041
g1086
tp1463
(g1041
g1086
NNtp1464
s(g944
g802
tp1465
(g944
g802
(g802
g803
tp1466
(g802
g936
tp1467
tp1468
s(g1061
g1144
tp1469
(g1061
g1144
(g1144
g1388
tp1470
(g1144
g1145
tp1471
tp1472
s(dp1473
(g973
g437
tp1474
(lp1475
S'C'
p1476
a(NNtp1477
a(NNtp1478
as(g837
g404
tp1479
(lp1480
S'T'
p1481
a(g884
g404
tp1482
a(g915
g159
tp1483
as(g1124
g370
tp1484
(lp1485
S'S'
p1486
a(g990
g372
tp1487
a(g1061
g1
tp1488
as(g1145
g279
tp1489
(lp1490
g1476
ag1477
ag1478
as(g1019
g510
tp1491
(lp1492
g1476
ag1477
ag1478
as(g1076
g193
tp1493
(lp1494
g1476
ag1477
ag1478
as(g842
g264
tp1495
(lp1496
g1481
a(g843
g264
tp1497
a(g1277
g107
tp1498
as(g835
g404
tp1499
(lp1500
g1481
ag1479
a(g839
g425
tp1501
as(g864
g96
tp1502
(lp1503
g1486
a(g908
g437
tp1504
a(g910
g97
tp1505
as(g1054
g6
tp1506
(lp1507
g1486
a(g818
g8
tp1508
a(g1055
g10
tp1509
as(g823
g33
tp1510
(lp1511
S'L'
p1512
a(g823
g34
tp1513
a(NNtp1514
as(g892
g298
tp1515
(lp1516
g1481
a(g1202
g298
tp1517
a(g893
g26
tp1518
as(g901
g60
tp1519
(lp1520
g1476
ag1477
ag1478
as(g830
g365
tp1521
(lp1522
g1486
a(g831
g568
tp1523
a(g1089
g699
tp1524
as(g1132
g139
tp1525
(lp1526
g1481
a(g1133
g139
tp1527
a(g1331
g253
tp1528
as(g1208
g413
tp1529
(lp1530
g1476
ag1477
ag1478
as(g1018
g221
tp1531
(lp1532
g1486
a(g1080
g223
tp1533
a(g1019
g225
tp1534
as(g1058
g139
tp1535
(lp1536
g1481
a(g1173
g139
tp1537
a(g900
g493
tp1538
as(g985
g1
tp1539
(lp1540
g1486
a(g1136
g73
tp1541
a(g1001
g2
tp1542
as(g895
g26
tp1543
(lp1544
g1486
a(g1129
g93
tp1545
a(g861
g196
tp1546
as(g1034
g85
tp1547
(lp1548
g1486
a(g1038
g86
tp1549
a(g1036
g466
tp1550
as(g1139
g279
tp1551
(lp1552
g1476
ag1477
ag1478
as(g877
g97
tp1553
(lp1554
g1476
ag1477
ag1478
as(g845
g413
tp1555
(lp1556
g1481
ag1529
a(g998
g90
tp1557
as(g1086
g629
tp1558
(lp1559
g1476
ag1477
ag1478
asg1504
(lp1560
g1481
ag1474
a(g971
g421
tp1561
as(g1187
g340
tp1562
(lp1563
g1476
ag1477
ag1478
as(g952
g404
tp1564
(lp1565
g1481
a(g880
g404
tp1566
a(g955
g338
tp1567
as(g1144
g73
tp1568
(lp1569
g1486
ag1489
a(g1388
g74
tp1570
as(g1036
g583
tp1571
(lp1572
g1476
ag1477
ag1478
as(g885
g404
tp1573
(lp1574
g1476
ag1477
ag1478
as(g948
g396
tp1575
(lp1576
g1481
a(g958
g396
tp1577
a(g949
g481
tp1578
as(g1118
g214
tp1579
(lp1580
g1486
a(g1167
g216
tp1581
a(g922
g218
tp1582
as(g1121
g203
tp1583
(lp1584
S'D'
p1585
a(g1211
g203
tp1586
a(g1309
g203
tp1587
as(g802
g117
tp1588
(lp1589
g1486
a(g936
g119
tp1590
a(g803
g121
tp1591
asg1578
(lp1592
g1476
ag1477
ag1478
as(g1083
g104
tp1593
(lp1594
g1512
a(g1083
g100
tp1595
ag1514
as(g862
g24
tp1596
(lp1597
g1486
a(g866
g243
tp1598
a(g864
g245
tp1599
as(g987
g775
tp1600
(lp1601
g1476
ag1477
ag1478
as(g919
g74
tp1602
(lp1603
g1476
ag1477
ag1478
as(g930
g296
tp1604
(lp1605
g1481
a(g932
g296
tp1606
a(g853
g165
tp1607
as(g1022
g425
tp1608
(lp1609
g1476
ag1477
ag1478
asg1550
(lp1610
g1512
ag1571
a(NNtp1611
as(g869
g231
tp1612
(lp1613
g1486
a(g873
g358
tp1614
a(g871
g360
tp1615
as(g978
g516
tp1616
(lp1617
g1486
a(g1182
g518
tp1618
a(g979
g520
tp1619
as(g1189
g338
tp1620
(lp1621
g1476
ag1477
ag1478
as(g923
g218
tp1622
(lp1623
g1486
a(g925
g252
tp1624
ag1521
as(g802
g116
tp1625
(lp1626
g1512
ag1588
ag1611
as(g967
g5
tp1627
(lp1628
g1486
a(g1214
g6
tp1629
a(g994
g56
tp1630
as(g889
g10
tp1631
(lp1632
g1476
ag1477
ag1478
as(g1007
g611
tp1633
(lp1634
g1481
a(g1008
g611
tp1635
a(g1338
g288
tp1636
as(g1150
g261
tp1637
(lp1638
g1476
ag1477
ag1478
as(g1193
g549
tp1639
(lp1640
g1486
ag1575
a(g1083
g552
tp1641
as(g847
g210
tp1642
(lp1643
g1476
ag1477
ag1478
as(g1199
g452
tp1644
(lp1645
g1476
ag1477
ag1478
as(g904
g265
tp1646
(lp1647
g1476
ag1477
ag1478
as(g1101
g229
tp1648
(lp1649
g1476
ag1477
ag1478
as(g798
g343
tp1650
(lp1651
g1512
a(g798
g291
tp1652
ag1611
asg1595
(lp1653
g1486
a(g1041
g77
tp1654
a(g1345
g101
tp1655
as(g1067
g513
tp1656
(lp1657
g1476
ag1477
ag1478
asg1591
(lp1658
g1512
a(g803
g260
tp1659
ag1514
as(g834
g404
tp1660
(lp1661
g1481
ag1499
a(g1322
g159
tp1662
asg1581
(lp1663
g1476
ag1477
ag1478
asg1513
(lp1664
g1486
a(g825
g36
tp1665
a(g827
g38
tp1666
as(g1113
g372
tp1667
(lp1668
g1476
ag1477
ag1478
as(g960
g397
tp1669
(lp1670
g1476
ag1477
ag1478
asg1570
(lp1671
g1476
ag1477
ag1478
as(g1015
g493
tp1672
(lp1673
g1476
ag1477
ag1478
as(g1260
g159
tp1674
(lp1675
g1476
ag1477
ag1478
asg1528
(lp1676
g1476
ag1477
ag1478
asg1537
(lp1677
g1476
ag1477
ag1478
asg1482
(lp1678
g1481
ag1573
a(g1231
g529
tp1679
as(g1018
g126
tp1680
(lp1681
g1512
ag1531
ag1514
asg1652
(lp1682
g1486
a(g1185
g336
tp1683
a(g799
g292
tp1684
as(g925
g138
tp1685
(lp1686
g1486
a(g1360
g502
tp1687
ag1525
asg1534
(lp1688
g1512
ag1491
ag1611
asg1683
(lp1689
g1486
ag1620
ag1562
asg1582
(lp1690
g1481
ag1622
ag1583
asg1598
(lp1691
g1476
ag1477
ag1478
asg1606
(lp1692
g1486
a(g1094
g319
tp1693
ag1495
asg1523
(lp1694
g1476
ag1477
ag1478
as(g1046
g80
tp1695
(lp1696
g1476
ag1477
ag1478
asg1641
(lp1697
g1512
ag1593
ag1611
asg1684
(lp1698
g1476
ag1477
ag1478
as(g1044
g82
tp1699
(lp1700
g1476
ag1477
ag1478
as(g1007
g169
tp1701
(lp1702
g1512
ag1633
ag1611
asg1687
(lp1703
g1476
ag1477
ag1478
asg1497
(lp1704
g1512
a(g843
g413
tp1705
ag1514
as(g1294
g427
tp1706
(lp1707
g1476
ag1477
ag1478
as(g929
g69
tp1708
(lp1709
g1486
ag1604
ag1515
as(g811
g13
tp1710
(lp1711
g1486
a(g813
g14
tp1712
a(g815
g343
tp1713
as(g985
g370
tp1714
(lp1715
g1512
ag1539
ag1611
asg1713
(lp1716
g1481
ag1650
a(g1263
g475
tp1717
as(g1164
g132
tp1718
(lp1719
g1481
a(g1302
g132
tp1720
ag1579
as(g1198
g298
tp1721
(lp1722
g1486
ag1644
a(g1204
g376
tp1723
asg1720
(lp1724
g1476
ag1477
ag1478
as(g1104
g60
tp1725
(lp1726
g1476
ag1477
ag1478
as(g881
g376
tp1727
(lp1728
g1476
ag1477
ag1478
as(g1272
g237
tp1729
(lp1730
g1476
ag1477
ag1478
as(g1177
g60
tp1731
(lp1732
g1476
ag1477
ag1478
as(g939
g48
tp1733
(lp1734
g1486
a(g940
g775
tp1735
ag1484
as(g876
g97
tp1736
(lp1737
g1481
ag1553
ag1731
as(g854
g48
tp1738
(lp1739
g1481
a(g856
g48
tp1740
a(g858
g53
tp1741
as(g918
g74
tp1742
(lp1743
g1481
ag1602
ag1667
asg1607
(lp1744
g1481
a(g944
g165
tp1745
ag1738
asg1577
(lp1746
g1486
a(g962
g606
tp1747
ag1669
asg1483
(lp1748
g1476
ag1477
ag1478
asg1488
(lp1749
g1486
ag1568
a(g1062
g2
tp1750
asg1561
(lp1751
g1486
ag1608
ag1706
asg1741
(lp1752
g1486
a(g810
g404
tp1753
ag1627
asg1723
(lp1754
g1476
ag1477
ag1478
as(g936
g626
tp1755
(lp1756
g1476
ag1477
ag1478
asg1717
(lp1757
g1476
ag1477
ag1478
as(g805
g261
tp1758
(lp1759
g1481
ag1637
a(g850
g493
tp1760
as(g1290
g315
tp1761
(lp1762
g1476
ag1477
ag1478
asg1524
(lp1763
g1476
ag1477
ag1478
asg1693
(lp1764
g1476
ag1477
ag1478
asg1659
(lp1765
g1486
a(g807
g752
tp1766
ag1758
as(g888
g10
tp1767
(lp1768
g1481
ag1631
ag1656
asg1587
(lp1769
g1476
ag1477
ag1478
as(g1033
g18
tp1770
(lp1771
g1486
ag1547
ag1680
asg1498
(lp1772
g1476
ag1477
ag1478
as(g994
g59
tp1773
(lp1774
g1486
a(g995
g310
tp1775
ag1725
asg1654
(lp1776
g1486
ag1558
a(g1042
g78
tp1777
asg1618
(lp1778
g1476
ag1477
ag1478
asg1666
(lp1779
g1476
ag1477
ag1478
asg1624
(lp1780
g1512
ag1685
ag1514
asg1538
(lp1781
g1481
ag1672
ag1519
as(g1192
g158
tp1782
(lp1783
g1486
ag1674
a(g1193
g480
tp1784
as(g1051
g169
tp1785
(lp1786
g1481
ag1701
ag1616
asg1629
(lp1787
g1481
ag1506
a(g1381
g642
tp1788
as(g1159
g67
tp1789
(lp1790
g1486
ag1708
a(g822
g33
tp1791
as(g1098
g235
tp1792
(lp1793
g1476
ag1477
ag1478
asg1788
(lp1794
g1476
ag1477
ag1478
asg1599
(lp1795
g1512
ag1502
ag1514
asg1542
(lp1796
g1476
ag1477
ag1478
asg1557
(lp1797
g1476
ag1477
ag1478
asg1614
(lp1798
g1476
ag1477
ag1478
asg1766
(lp1799
g1476
ag1477
ag1478
asg1705
(lp1800
g1481
ag1555
ag1642
as(g1012
g726
tp1801
(lp1802
g1476
ag1477
ag1478
asg1679
(lp1803
g1476
ag1477
ag1478
as(g991
g372
tp1804
(lp1805
g1476
ag1477
ag1478
asg1735
(lp1806
g1476
ag1477
ag1478
asg1586
(lp1807
g1476
ag1477
ag1478
asg1619
(lp1808
g1476
ag1477
ag1478
asg1508
(lp1809
g1481
a(g819
g8
tp1810
ag1736
as(g1004
g16
tp1811
(lp1812
g1476
ag1477
ag1478
asg1615
(lp1813
g1476
ag1477
ag1478
asg1636
(lp1814
g1476
ag1477
ag1478
asg1517
(lp1815
g1481
ag1721
ag1718
asg1635
(lp1816
g1486
ag1801
a(g1010
g663
tp1817
asg1549
(lp1818
g1476
ag1477
ag1478
asg1518
(lp1819
g1481
ag1543
a(g897
g193
tp1820
asg1791
(lp1821
g1481
ag1510
ag1761
asg1545
(lp1822
g1476
ag1477
ag1478
asg1501
(lp1823
g1476
ag1477
ag1478
asg1527
(lp1824
g1476
ag1477
ag1478
asg1509
(lp1825
g1481
ag1767
ag1535
asg1745
(lp1826
g1486
ag1785
ag1625
asg1655
(lp1827
g1476
ag1477
ag1478
asg1750
(lp1828
g1476
ag1477
ag1478
asg1541
(lp1829
g1486
ag1551
ag1742
asg1630
(lp1830
g1512
ag1773
ag1611
asg1775
(lp1831
g1476
ag1477
ag1478
asg1665
(lp1832
g1486
ag1648
ag1612
asg1747
(lp1833
g1476
ag1477
ag1478
asg1487
(lp1834
g1481
ag1804
ag1789
asg1533
(lp1835
g1476
ag1477
ag1478
asg1784
(lp1836
g1512
ag1639
ag1611
asg1505
(lp1837
g1476
ag1477
ag1478
asg1820
(lp1838
g1481
ag1493
ag1646
asg1760
(lp1839
g1476
ag1477
ag1478
as(g1071
g196
tp1840
(lp1841
g1486
a(g1097
g198
tp1842
ag1782
asg1842
(lp1843
g1486
ag1792
ag1729
asg1546
(lp1844
g1481
ag1840
ag1596
asg1567
(lp1845
g1476
ag1477
ag1478
asg1810
(lp1846
g1476
ag1477
ag1478
asg1712
(lp1847
g1486
ag1811
ag1770
asg1753
(lp1848
g1481
ag1564
ag1710
asg1590
(lp1849
g1512
ag1755
ag1611
asg1566
(lp1850
g1481
ag1660
ag1727
asg1817
(lp1851
g1476
ag1477
ag1478
asg1740
(lp1852
g1486
ag1600
ag1714
asg1662
(lp1853
g1476
ag1477
ag1478
asg1777
(lp1854
g1486
ag1695
ag1699
astp1855
.S'species.newick'
p0
.S'gene.newick'
p0
.S'recon.txt'
p0
.